; ModuleID = '60/912.c'
source_filename = "60/912.c"
target datalayout = "e-m:e-p270:32:32-p271:32:32-p272:64:64-i64:64-f80:128-n8:16:32:64-S128"
target triple = "x86_64-pc-linux-gnu"

@.str = private unnamed_addr constant [3 x i8] c"%d\00", align 1
@.str.1 = private unnamed_addr constant [7 x i8] c"%d %d\0A\00", align 1
@.str.2 = private unnamed_addr constant [6 x i8] c"empty\00", align 1

; Function Attrs: noinline nounwind uwtable
define dso_local i32 @main() #0 {
  %1 = alloca i32, align 4
  %2 = alloca i32, align 4
  %3 = alloca i32, align 4
  %4 = alloca i32, align 4
  %5 = alloca i32, align 4
  %6 = alloca i32, align 4
  store i32 0, i32* %1, align 4
  store i32 0, i32* %6, align 4
  %7 = call i32 (i8*, ...) @__isoc99_scanf(i8* getelementptr inbounds ([3 x i8], [3 x i8]* @.str, i64 0, i64 0), i32* %2)
  store i32 3, i32* %3, align 4
  br label %8

8:                                                ; preds = %32, %0
  %9 = load i32, i32* %3, align 4
  %10 = load i32, i32* %2, align 4
  %11 = sub nsw i32 %10, 1
  %12 = icmp slt i32 %9, %11
  br i1 %12, label %13, label %35

13:                                               ; preds = %8
  %14 = load i32, i32* %3, align 4
  %15 = call i32 @ss(i32 %14)
  store i32 %15, i32* %4, align 4
  %16 = load i32, i32* %3, align 4
  %17 = add nsw i32 %16, 2
  %18 = call i32 @ss(i32 %17)
  store i32 %18, i32* %5, align 4
  %19 = load i32, i32* %4, align 4
  %20 = icmp sgt i32 %19, 0
  br i1 %20, label %21, label %31

21:                                               ; preds = %13
  %22 = load i32, i32* %5, align 4
  %23 = icmp sgt i32 %22, 0
  br i1 %23, label %24, label %31

24:                                               ; preds = %21
  %25 = load i32, i32* %3, align 4
  %26 = load i32, i32* %3, align 4
  %27 = add nsw i32 %26, 2
  %28 = call i32 (i8*, ...) @printf(i8* getelementptr inbounds ([7 x i8], [7 x i8]* @.str.1, i64 0, i64 0), i32 %25, i32 %27)
  %29 = load i32, i32* %6, align 4
  %30 = add nsw i32 %29, 1
  store i32 %30, i32* %6, align 4
  br label %31

31:                                               ; preds = %24, %21, %13
  br label %32

32:                                               ; preds = %31
  %33 = load i32, i32* %3, align 4
  %34 = add nsw i32 %33, 2
  store i32 %34, i32* %3, align 4
  br label %8

35:                                               ; preds = %8
  %36 = load i32, i32* %6, align 4
  %37 = icmp eq i32 %36, 0
  br i1 %37, label %38, label %40

38:                                               ; preds = %35
  %39 = call i32 (i8*, ...) @printf(i8* getelementptr inbounds ([6 x i8], [6 x i8]* @.str.2, i64 0, i64 0))
  br label %40

40:                                               ; preds = %38, %35
  ret i32 0
}

declare dso_local i32 @__isoc99_scanf(i8*, ...) #1

; Function Attrs: noinline nounwind uwtable
define dso_local i32 @ss(i32 %0) #0 {
  %2 = alloca i32, align 4
  %3 = alloca i32, align 4
  %4 = alloca i32, align 4
  store i32 %0, i32* %2, align 4
  store i32 0, i32* %3, align 4
  store i32 2, i32* %4, align 4
  br label %5

5:                                                ; preds = %21, %1
  %6 = load i32, i32* %4, align 4
  %7 = load i32, i32* %2, align 4
  %8 = icmp slt i32 %6, %7
  br i1 %8, label %9, label %24

9:                                                ; preds = %5
  %10 = load i32, i32* %2, align 4
  %11 = load i32, i32* %4, align 4
  %12 = srem i32 %10, %11
  %13 = icmp eq i32 %12, 0
  br i1 %13, label %14, label %17

14:                                               ; preds = %9
  %15 = load i32, i32* %3, align 4
  %16 = mul nsw i32 %15, 0
  store i32 %16, i32* %3, align 4
  br label %24

17:                                               ; preds = %9
  %18 = load i32, i32* %3, align 4
  %19 = add nsw i32 %18, 1
  store i32 %19, i32* %3, align 4
  br label %20

20:                                               ; preds = %17
  br label %21

21:                                               ; preds = %20
  %22 = load i32, i32* %4, align 4
  %23 = add nsw i32 %22, 1
  store i32 %23, i32* %4, align 4
  br label %5

24:                                               ; preds = %14, %5
  %25 = load i32, i32* %3, align 4
  ret i32 %25
}

declare dso_local i32 @printf(i8*, ...) #1


!llvm.module.flags = !{!0}
!llvm.ident = !{!1}

!0 = !{i32 1, !"wchar_size", i32 4}
!1 = !{!"clang version 10.0.0-4ubuntu1 "}
