; ModuleID = 'source-C-CXX/59/912.c'
source_filename = "source-C-CXX/59/912.c"
target datalayout = "e-m:e-p270:32:32-p271:32:32-p272:64:64-i64:64-f80:128-n8:16:32:64-S128"
target triple = "x86_64-pc-linux-gnu"

@.str = private unnamed_addr constant [3 x i8] c"%d\00", align 1
@.str.1 = private unnamed_addr constant [7 x i8] c"%d %d\0A\00", align 1
@.str.2 = private unnamed_addr constant [6 x i8] c"empty\00", align 1

; Function Attrs: nofree nounwind sspstrong uwtable
define dso_local i32 @main() local_unnamed_addr #0 {
  %1 = alloca i32, align 4
  %2 = bitcast i32* %1 to i8*
  call void @llvm.lifetime.start.p0i8(i64 4, i8* nonnull %2) #4
  %3 = call i32 (i8*, ...) @__isoc99_scanf(i8* getelementptr inbounds ([3 x i8], [3 x i8]* @.str, i64 0, i64 0), i32* nonnull %1)
  %4 = load i32, i32* %1, align 4, !tbaa !5
  %5 = icmp sgt i32 %4, 4
  br i1 %5, label %6, label %41

6:                                                ; preds = %0, %34
  %7 = phi i32 [ %35, %34 ], [ %4, %0 ]
  %8 = phi i32 [ %36, %34 ], [ 0, %0 ]
  %9 = phi i32 [ %20, %34 ], [ 3, %0 ]
  %10 = add nsw i32 %9, -2
  br label %11

11:                                               ; preds = %15, %6
  %12 = phi i32 [ %16, %15 ], [ 2, %6 ]
  %13 = urem i32 %9, %12
  %14 = icmp eq i32 %13, 0
  br i1 %14, label %18, label %15

15:                                               ; preds = %11
  %16 = add nuw nsw i32 %12, 1
  %17 = icmp eq i32 %16, %9
  br i1 %17, label %18, label %11, !llvm.loop !9

18:                                               ; preds = %11, %15
  %19 = phi i32 [ 0, %11 ], [ %10, %15 ]
  %20 = add nuw nsw i32 %9, 2
  br label %21

21:                                               ; preds = %25, %18
  %22 = phi i32 [ %26, %25 ], [ 2, %18 ]
  %23 = urem i32 %20, %22
  %24 = icmp eq i32 %23, 0
  br i1 %24, label %34, label %25

25:                                               ; preds = %21
  %26 = add nuw nsw i32 %22, 1
  %27 = icmp eq i32 %26, %20
  br i1 %27, label %28, label %21, !llvm.loop !9

28:                                               ; preds = %25
  %29 = icmp sgt i32 %19, 0
  br i1 %29, label %30, label %34

30:                                               ; preds = %28
  %31 = call i32 (i8*, ...) @printf(i8* nonnull dereferenceable(1) getelementptr inbounds ([7 x i8], [7 x i8]* @.str.1, i64 0, i64 0), i32 %9, i32 %20)
  %32 = add nsw i32 %8, 1
  %33 = load i32, i32* %1, align 4, !tbaa !5
  br label %34

34:                                               ; preds = %21, %28, %30
  %35 = phi i32 [ %33, %30 ], [ %7, %28 ], [ %7, %21 ]
  %36 = phi i32 [ %32, %30 ], [ %8, %28 ], [ %8, %21 ]
  %37 = add nsw i32 %35, -1
  %38 = icmp slt i32 %20, %37
  br i1 %38, label %6, label %39, !llvm.loop !11

39:                                               ; preds = %34
  %40 = icmp eq i32 %36, 0
  br i1 %40, label %41, label %43

41:                                               ; preds = %0, %39
  %42 = call i32 (i8*, ...) @printf(i8* nonnull dereferenceable(1) getelementptr inbounds ([6 x i8], [6 x i8]* @.str.2, i64 0, i64 0))
  br label %43

43:                                               ; preds = %41, %39
  call void @llvm.lifetime.end.p0i8(i64 4, i8* nonnull %2) #4
  ret i32 0
}

; Function Attrs: argmemonly mustprogress nofree nosync nounwind willreturn
declare void @llvm.lifetime.start.p0i8(i64 immarg, i8* nocapture) #1

; Function Attrs: nofree nounwind
declare noundef i32 @__isoc99_scanf(i8* nocapture noundef readonly, ...) local_unnamed_addr #2

; Function Attrs: nofree norecurse nosync nounwind readnone sspstrong uwtable
define dso_local i32 @ss(i32 %0) local_unnamed_addr #3 {
  %2 = icmp sgt i32 %0, 2
  br i1 %2, label %3, label %12

3:                                                ; preds = %1
  %4 = add nsw i32 %0, -2
  br label %5

5:                                                ; preds = %3, %9
  %6 = phi i32 [ %10, %9 ], [ 2, %3 ]
  %7 = srem i32 %0, %6
  %8 = icmp eq i32 %7, 0
  br i1 %8, label %12, label %9

9:                                                ; preds = %5
  %10 = add nuw nsw i32 %6, 1
  %11 = icmp eq i32 %10, %0
  br i1 %11, label %12, label %5, !llvm.loop !9

12:                                               ; preds = %9, %5, %1
  %13 = phi i32 [ 0, %1 ], [ 0, %5 ], [ %4, %9 ]
  ret i32 %13
}

; Function Attrs: nofree nounwind
declare noundef i32 @printf(i8* nocapture noundef readonly, ...) local_unnamed_addr #2

; Function Attrs: argmemonly mustprogress nofree nosync nounwind willreturn
declare void @llvm.lifetime.end.p0i8(i64 immarg, i8* nocapture) #1


!llvm.module.flags = !{!0, !1, !2, !3}
!llvm.ident = !{!4}

!0 = !{i32 1, !"wchar_size", i32 4}
!1 = !{i32 7, !"PIC Level", i32 2}
!2 = !{i32 7, !"PIE Level", i32 2}
!3 = !{i32 7, !"uwtable", i32 1}
!4 = !{!"clang version 13.0.0"}
!5 = !{!6, !6, i64 0}
!6 = !{!"int", !7, i64 0}
!7 = !{!"omnipotent char", !8, i64 0}
!8 = !{!"Simple C/C++ TBAA"}
!9 = distinct !{!9, !10}
!10 = !{!"llvm.loop.mustprogress"}
!11 = distinct !{!11, !10}
